target datalayout = "e-m:e-p270:32:32-p271:32:32-p272:64:64-i64:64-i128:128-f80:128-n8:16:32:64-S128"
target triple = "x86_64-pc-linux-gnu"

%"class.boost::unit_test::basic_cstring" = type { ptr, ptr }
%"struct.boost::debug::(anonymous namespace)::process_info" = type <{ i32, [4 x i8], %"class.boost::unit_test::basic_cstring", %"class.boost::unit_test::basic_cstring", [501 x i8], [501 x i8], [6 x i8] }>
%"struct.boost::debug::(anonymous namespace)::fd_holder" = type { i32 }

@_ZN5boost9unit_test13basic_cstringIKcE4nullE = linkonce_odr constant i8 0, comdat, align 1
@.str.50 = private unnamed_addr constant [14 x i8] c"/proc/%d/stat\00", align 1
@.str.51 = private unnamed_addr constant [6 x i8] c"%*s%d\00", align 1
@.str.52 = private unnamed_addr constant [13 x i8] c"/proc/%d/exe\00", align 1

; Function Attrs: mustprogress nounwind uwtable
define linkonce_odr hidden void @_ZN5boost9unit_test13basic_cstringIKcEC2IlEEPS2_T_(ptr noundef nonnull align 8 dereferenceable(16) %0, ptr noundef %1, i64 noundef %2) unnamed_addr #5 comdat align 2 {
  %4 = alloca ptr, align 8
  %5 = alloca ptr, align 8
  %6 = alloca i64, align 8
  store ptr %0, ptr %4, align 8, !tbaa !3
  store ptr %1, ptr %5, align 8, !tbaa !3
  store i64 %2, ptr %6, align 8, !tbaa !11
  %7 = load ptr, ptr %4, align 8
  %8 = getelementptr inbounds nuw %"class.boost::unit_test::basic_cstring", ptr %7, i32 0, i32 0
  %9 = load ptr, ptr %5, align 8, !tbaa !3
  store ptr %9, ptr %8, align 8, !tbaa !13
  %10 = getelementptr inbounds nuw %"class.boost::unit_test::basic_cstring", ptr %7, i32 0, i32 1
  %11 = getelementptr inbounds nuw %"class.boost::unit_test::basic_cstring", ptr %7, i32 0, i32 0
  %12 = load ptr, ptr %11, align 8, !tbaa !13
  %13 = load i64, ptr %6, align 8, !tbaa !11
  %14 = getelementptr inbounds i8, ptr %12, i64 %13
  store ptr %14, ptr %10, align 8, !tbaa !15
  ret void
}

; Function Attrs: inlinehint mustprogress nounwind uwtable
define linkonce_odr hidden noundef nonnull align 8 dereferenceable(16) ptr @_ZN5boost9unit_test13basic_cstringIKcEaSERKS3_(ptr noundef nonnull align 8 dereferenceable(16) %0, ptr noundef nonnull align 8 dereferenceable(16) %1) #2 comdat align 2 {
  %3 = alloca ptr, align 8
  %4 = alloca ptr, align 8
  store ptr %0, ptr %3, align 8, !tbaa !3
  store ptr %1, ptr %4, align 8, !tbaa !3
  %5 = load ptr, ptr %3, align 8
  %6 = load ptr, ptr %4, align 8, !tbaa !3
  %7 = getelementptr inbounds nuw %"class.boost::unit_test::basic_cstring", ptr %6, i32 0, i32 0
  %8 = load ptr, ptr %7, align 8, !tbaa !13
  %9 = getelementptr inbounds nuw %"class.boost::unit_test::basic_cstring", ptr %5, i32 0, i32 0
  store ptr %8, ptr %9, align 8, !tbaa !13
  %10 = load ptr, ptr %4, align 8, !tbaa !3
  %11 = getelementptr inbounds nuw %"class.boost::unit_test::basic_cstring", ptr %10, i32 0, i32 1
  %12 = load ptr, ptr %11, align 8, !tbaa !15
  %13 = getelementptr inbounds nuw %"class.boost::unit_test::basic_cstring", ptr %5, i32 0, i32 1
  store ptr %12, ptr %13, align 8, !tbaa !15
  ret ptr %5
}

; Function Attrs: inlinehint mustprogress nounwind uwtable
define linkonce_odr hidden void @_ZN5boost9unit_test13basic_cstringIKcEC2EPS2_S4_(ptr noundef nonnull align 8 dereferenceable(16) %0, ptr noundef %1, ptr noundef %2) unnamed_addr #2 comdat align 2 {
  %4 = alloca ptr, align 8
  %5 = alloca ptr, align 8
  %6 = alloca ptr, align 8
  store ptr %0, ptr %4, align 8, !tbaa !3
  store ptr %1, ptr %5, align 8, !tbaa !3
  store ptr %2, ptr %6, align 8, !tbaa !3
  %7 = load ptr, ptr %4, align 8
  %8 = getelementptr inbounds nuw %"class.boost::unit_test::basic_cstring", ptr %7, i32 0, i32 0
  %9 = load ptr, ptr %5, align 8, !tbaa !3
  store ptr %9, ptr %8, align 8, !tbaa !13
  %10 = getelementptr inbounds nuw %"class.boost::unit_test::basic_cstring", ptr %7, i32 0, i32 1
  %11 = load ptr, ptr %6, align 8, !tbaa !3
  store ptr %11, ptr %10, align 8, !tbaa !15
  ret void
}

; Function Attrs: inlinehint mustprogress nounwind uwtable
define linkonce_odr hidden noundef ptr @_ZN5boost9unit_test13basic_cstringIKcE8null_strEv() #2 comdat align 2 {
  ret ptr @_ZN5boost9unit_test13basic_cstringIKcE4nullE
}

; Function Attrs: mustprogress uwtable
define linkonce_odr hidden noundef nonnull align 8 dereferenceable(16) ptr @_ZN5boost9unit_test13basic_cstringIKcE6assignIlEERS3_PS2_T_(ptr noundef nonnull align 8 dereferenceable(16) %0, ptr noundef %1, i64 noundef %2) #1 comdat align 2 {
  %4 = alloca ptr, align 8
  %5 = alloca ptr, align 8
  %6 = alloca i64, align 8
  %7 = alloca %"class.boost::unit_test::basic_cstring", align 8
  store ptr %0, ptr %4, align 8, !tbaa !3
  store ptr %1, ptr %5, align 8, !tbaa !3
  store i64 %2, ptr %6, align 8, !tbaa !11
  %8 = load ptr, ptr %4, align 8
  call void @llvm.lifetime.start.p0(i64 16, ptr %7) #3
  %9 = load ptr, ptr %5, align 8, !tbaa !3
  %10 = load i64, ptr %6, align 8, !tbaa !11
  call void @_ZN5boost9unit_test13basic_cstringIKcEC2IlEEPS2_T_(ptr noundef nonnull align 8 dereferenceable(16) %7, ptr noundef %9, i64 noundef %10)
  %11 = call noundef nonnull align 8 dereferenceable(16) ptr @_ZN5boost9unit_test13basic_cstringIKcEaSERKS3_(ptr noundef nonnull align 8 dereferenceable(16) %8, ptr noundef nonnull align 8 dereferenceable(16) %7)
  call void @llvm.lifetime.end.p0(i64 16, ptr %7) #3
  ret ptr %11
}

; Function Attrs: inlinehint mustprogress uwtable
define linkonce_odr hidden noundef nonnull align 8 dereferenceable(16) ptr @_ZN5boost9unit_test13basic_cstringIKcE6assignEPS2_S4_(ptr noundef nonnull align 8 dereferenceable(16) %0, ptr noundef %1, ptr noundef %2) #7 comdat align 2 {
  %4 = alloca ptr, align 8
  %5 = alloca ptr, align 8
  %6 = alloca ptr, align 8
  %7 = alloca %"class.boost::unit_test::basic_cstring", align 8
  store ptr %0, ptr %4, align 8, !tbaa !3
  store ptr %1, ptr %5, align 8, !tbaa !3
  store ptr %2, ptr %6, align 8, !tbaa !3
  %8 = load ptr, ptr %4, align 8
  call void @llvm.lifetime.start.p0(i64 16, ptr %7) #3
  %9 = load ptr, ptr %5, align 8, !tbaa !3
  %10 = load ptr, ptr %6, align 8, !tbaa !3
  call void @_ZN5boost9unit_test13basic_cstringIKcEC2EPS2_S4_(ptr noundef nonnull align 8 dereferenceable(16) %7, ptr noundef %9, ptr noundef %10)
  %11 = call noundef nonnull align 8 dereferenceable(16) ptr @_ZN5boost9unit_test13basic_cstringIKcEaSERKS3_(ptr noundef nonnull align 8 dereferenceable(16) %8, ptr noundef nonnull align 8 dereferenceable(16) %7)
  call void @llvm.lifetime.end.p0(i64 16, ptr %7) #3
  ret ptr %11
}

; Function Attrs: mustprogress nounwind uwtable
define internal noundef i32 @_ZN5boost5debug12_GLOBAL__N_19fd_holdercviEv(ptr noundef nonnull align 4 dereferenceable(4) %0) #5 align 2 {
  %2 = alloca ptr, align 8
  store ptr %0, ptr %2, align 8, !tbaa !3
  %3 = load ptr, ptr %2, align 8
  %4 = getelementptr inbounds nuw %"struct.boost::debug::(anonymous namespace)::fd_holder", ptr %3, i32 0, i32 0
  %5 = load i32, ptr %4, align 4, !tbaa !31
  ret i32 %5
}

; Function Attrs: mustprogress nounwind uwtable
define internal void @_ZN5boost5debug12_GLOBAL__N_19fd_holderC2Ei(ptr noundef nonnull align 4 dereferenceable(4) %0, i32 noundef %1) unnamed_addr #5 align 2 {
  %3 = alloca ptr, align 8
  %4 = alloca i32, align 4
  store ptr %0, ptr %3, align 8, !tbaa !3
  store i32 %1, ptr %4, align 4, !tbaa !7
  %5 = load ptr, ptr %3, align 8
  %6 = getelementptr inbounds nuw %"struct.boost::debug::(anonymous namespace)::fd_holder", ptr %5, i32 0, i32 0
  %7 = load i32, ptr %4, align 4, !tbaa !7
  store i32 %7, ptr %6, align 4, !tbaa !31
  ret void
}

; Function Attrs: inlinehint mustprogress nounwind uwtable
define linkonce_odr hidden void @_ZN5boost9unit_test13basic_cstringIKcEC2Ev(ptr noundef nonnull align 8 dereferenceable(16) %0) unnamed_addr #2 comdat align 2 {
  %2 = alloca ptr, align 8
  store ptr %0, ptr %2, align 8, !tbaa !3
  %3 = load ptr, ptr %2, align 8
  %4 = getelementptr inbounds nuw %"class.boost::unit_test::basic_cstring", ptr %3, i32 0, i32 0
  %5 = call noundef ptr @_ZN5boost9unit_test13basic_cstringIKcE8null_strEv()
  store ptr %5, ptr %4, align 8, !tbaa !13
  %6 = getelementptr inbounds nuw %"class.boost::unit_test::basic_cstring", ptr %3, i32 0, i32 1
  %7 = getelementptr inbounds nuw %"class.boost::unit_test::basic_cstring", ptr %3, i32 0, i32 0
  %8 = load ptr, ptr %7, align 8, !tbaa !13
  store ptr %8, ptr %6, align 8, !tbaa !15
  ret void
}

; Function Attrs: mustprogress uwtable
define internal void @_ZN5boost5debug12_GLOBAL__N_112process_infoC2Ei(ptr noundef nonnull align 8 dereferenceable(1042) %0, i32 noundef %1) unnamed_addr #1 align 2 personality ptr @__gxx_personality_v0 {
  %3 = alloca ptr, align 8
  %4 = alloca i32, align 4
  %5 = alloca [30 x i8], align 16
  %6 = alloca %"struct.boost::debug::(anonymous namespace)::fd_holder", align 4
  %7 = alloca ptr, align 8
  %8 = alloca i32, align 4
  %9 = alloca i32, align 4
  %10 = alloca i64, align 8
  %11 = alloca ptr, align 8
  %12 = alloca ptr, align 8
  store ptr %0, ptr %3, align 8, !tbaa !3
  store i32 %1, ptr %4, align 4, !tbaa !7
  %13 = load ptr, ptr %3, align 8
  %14 = getelementptr inbounds nuw %"struct.boost::debug::(anonymous namespace)::process_info", ptr %13, i32 0, i32 0
  store i32 0, ptr %14, align 8, !tbaa !16
  %15 = getelementptr inbounds nuw %"struct.boost::debug::(anonymous namespace)::process_info", ptr %13, i32 0, i32 2
  call void @_ZN5boost9unit_test13basic_cstringIKcEC2Ev(ptr noundef nonnull align 8 dereferenceable(16) %15)
  %16 = getelementptr inbounds nuw %"struct.boost::debug::(anonymous namespace)::process_info", ptr %13, i32 0, i32 3
  call void @_ZN5boost9unit_test13basic_cstringIKcEC2Ev(ptr noundef nonnull align 8 dereferenceable(16) %16)
  call void @llvm.lifetime.start.p0(i64 30, ptr %5) #3
  %17 = getelementptr inbounds [30 x i8], ptr %5, i64 0, i64 0
  %18 = load i32, ptr %4, align 4, !tbaa !7
  %19 = call i32 (ptr, i64, ptr, ...) @snprintf(ptr noundef %17, i64 noundef 30, ptr noundef @.str.50, i32 noundef %18) #3
  call void @llvm.lifetime.start.p0(i64 4, ptr %6) #3
  %20 = getelementptr inbounds [30 x i8], ptr %5, i64 0, i64 0
  %21 = call i32 (ptr, i32, ...) @open(ptr noundef %20, i32 noundef 0)
  call void @_ZN5boost5debug12_GLOBAL__N_19fd_holderC2Ei(ptr noundef nonnull align 4 dereferenceable(4) %6, i32 noundef %21)
  %22 = invoke noundef i32 @_ZN5boost5debug12_GLOBAL__N_19fd_holdercviEv(ptr noundef nonnull align 4 dereferenceable(4) %6)
          to label %23 unwind label %26

23:                                               ; preds = %2
  %24 = icmp eq i32 %22, -1
  br i1 %24, label %25, label %30

25:                                               ; preds = %23
  store i32 1, ptr %9, align 4
  br label %118

26:                                               ; preds = %2
  %27 = landingpad { ptr, i32 }
          cleanup
  %28 = extractvalue { ptr, i32 } %27, 0
  store ptr %28, ptr %7, align 8
  %29 = extractvalue { ptr, i32 } %27, 1
  store i32 %29, ptr %8, align 4
  br label %122

30:                                               ; preds = %23
  call void @llvm.lifetime.start.p0(i64 8, ptr %10) #3
  %31 = invoke noundef i32 @_ZN5boost5debug12_GLOBAL__N_19fd_holdercviEv(ptr noundef nonnull align 4 dereferenceable(4) %6)
          to label %32 unwind label %40

32:                                               ; preds = %30
  %33 = getelementptr inbounds nuw %"struct.boost::debug::(anonymous namespace)::process_info", ptr %13, i32 0, i32 4
  %34 = getelementptr inbounds [501 x i8], ptr %33, i64 0, i64 0
  %35 = invoke i64 @read(i32 noundef %31, ptr noundef %34, i64 noundef 500)
          to label %36 unwind label %40

36:                                               ; preds = %32
  store i64 %35, ptr %10, align 8, !tbaa !11
  %37 = load i64, ptr %10, align 8, !tbaa !11
  %38 = icmp eq i64 %37, -1
  br i1 %38, label %39, label %44

39:                                               ; preds = %36
  store i32 1, ptr %9, align 4
  br label %117

40:                                               ; preds = %32, %30
  %41 = landingpad { ptr, i32 }
          cleanup
  %42 = extractvalue { ptr, i32 } %41, 0
  store ptr %42, ptr %7, align 8
  %43 = extractvalue { ptr, i32 } %41, 1
  store i32 %43, ptr %8, align 4
  br label %121

44:                                               ; preds = %36
  %45 = getelementptr inbounds nuw %"struct.boost::debug::(anonymous namespace)::process_info", ptr %13, i32 0, i32 4
  %46 = load i64, ptr %10, align 8, !tbaa !11
  %47 = getelementptr inbounds [501 x i8], ptr %45, i64 0, i64 %46
  store i8 0, ptr %47, align 1, !tbaa !18
  call void @llvm.lifetime.start.p0(i64 8, ptr %11) #3
  %48 = getelementptr inbounds nuw %"struct.boost::debug::(anonymous namespace)::process_info", ptr %13, i32 0, i32 4
  %49 = getelementptr inbounds [501 x i8], ptr %48, i64 0, i64 0
  store ptr %49, ptr %11, align 8, !tbaa !3
  br label %50

50:                                               ; preds = %61, %44
  %51 = load ptr, ptr %11, align 8, !tbaa !3
  %52 = load i8, ptr %51, align 1, !tbaa !18
  %53 = icmp ne i8 %52, 0
  br i1 %53, label %54, label %59

54:                                               ; preds = %50
  %55 = load ptr, ptr %11, align 8, !tbaa !3
  %56 = load i8, ptr %55, align 1, !tbaa !18
  %57 = sext i8 %56 to i32
  %58 = icmp ne i32 %57, 40
  br label %59

59:                                               ; preds = %54, %50
  %60 = phi i1 [ false, %50 ], [ %58, %54 ]
  br i1 %60, label %61, label %64

61:                                               ; preds = %59
  %62 = load ptr, ptr %11, align 8, !tbaa !3
  %63 = getelementptr inbounds nuw i8, ptr %62, i32 1
  store ptr %63, ptr %11, align 8, !tbaa !3
  br label %50, !llvm.loop !19

64:                                               ; preds = %59
  call void @llvm.lifetime.start.p0(i64 8, ptr %12) #3
  %65 = load ptr, ptr %11, align 8, !tbaa !3
  %66 = getelementptr inbounds i8, ptr %65, i64 1
  store ptr %66, ptr %12, align 8, !tbaa !3
  br label %67

67:                                               ; preds = %78, %64
  %68 = load ptr, ptr %12, align 8, !tbaa !3
  %69 = load i8, ptr %68, align 1, !tbaa !18
  %70 = icmp ne i8 %69, 0
  br i1 %70, label %71, label %76

71:                                               ; preds = %67
  %72 = load ptr, ptr %12, align 8, !tbaa !3
  %73 = load i8, ptr %72, align 1, !tbaa !18
  %74 = sext i8 %73 to i32
  %75 = icmp ne i32 %74, 41
  br label %76

76:                                               ; preds = %71, %67
  %77 = phi i1 [ false, %67 ], [ %75, %71 ]
  br i1 %77, label %78, label %81

78:                                               ; preds = %76
  %79 = load ptr, ptr %12, align 8, !tbaa !3
  %80 = getelementptr inbounds nuw i8, ptr %79, i32 1
  store ptr %80, ptr %12, align 8, !tbaa !3
  br label %67, !llvm.loop !20

81:                                               ; preds = %76
  %82 = load ptr, ptr %12, align 8, !tbaa !3
  %83 = getelementptr inbounds i8, ptr %82, i64 1
  %84 = getelementptr inbounds nuw %"struct.boost::debug::(anonymous namespace)::process_info", ptr %13, i32 0, i32 0
  %85 = call i32 (ptr, ptr, ...) @__isoc99_sscanf(ptr noundef %83, ptr noundef @.str.51, ptr noundef %84) #3
  %86 = getelementptr inbounds nuw %"struct.boost::debug::(anonymous namespace)::process_info", ptr %13, i32 0, i32 2
  %87 = load ptr, ptr %11, align 8, !tbaa !3
  %88 = getelementptr inbounds i8, ptr %87, i64 1
  %89 = load ptr, ptr %12, align 8, !tbaa !3
  %90 = invoke noundef nonnull align 8 dereferenceable(16) ptr @_ZN5boost9unit_test13basic_cstringIKcE6assignEPS2_S4_(ptr noundef nonnull align 8 dereferenceable(16) %86, ptr noundef %88, ptr noundef %89)
          to label %91 unwind label %102

91:                                               ; preds = %81
  %92 = getelementptr inbounds [30 x i8], ptr %5, i64 0, i64 0
  %93 = load i32, ptr %4, align 4, !tbaa !7
  %94 = call i32 (ptr, i64, ptr, ...) @snprintf(ptr noundef %92, i64 noundef 30, ptr noundef @.str.52, i32 noundef %93) #3
  %95 = getelementptr inbounds [30 x i8], ptr %5, i64 0, i64 0
  %96 = getelementptr inbounds nuw %"struct.boost::debug::(anonymous namespace)::process_info", ptr %13, i32 0, i32 5
  %97 = getelementptr inbounds [501 x i8], ptr %96, i64 0, i64 0
  %98 = call i64 @readlink(ptr noundef %95, ptr noundef %97, i64 noundef 500) #3
  store i64 %98, ptr %10, align 8, !tbaa !11
  %99 = load i64, ptr %10, align 8, !tbaa !11
  %100 = icmp eq i64 %99, -1
  br i1 %100, label %101, label %106

101:                                              ; preds = %91
  store i32 1, ptr %9, align 4
  br label %116

102:                                              ; preds = %106, %81
  %103 = landingpad { ptr, i32 }
          cleanup
  %104 = extractvalue { ptr, i32 } %103, 0
  store ptr %104, ptr %7, align 8
  %105 = extractvalue { ptr, i32 } %103, 1
  store i32 %105, ptr %8, align 4
  call void @llvm.lifetime.end.p0(i64 8, ptr %12) #3
  call void @llvm.lifetime.end.p0(i64 8, ptr %11) #3
  br label %121

106:                                              ; preds = %91
  %107 = getelementptr inbounds nuw %"struct.boost::debug::(anonymous namespace)::process_info", ptr %13, i32 0, i32 5
  %108 = load i64, ptr %10, align 8, !tbaa !11
  %109 = getelementptr inbounds [501 x i8], ptr %107, i64 0, i64 %108
  store i8 0, ptr %109, align 1, !tbaa !18
  %110 = getelementptr inbounds nuw %"struct.boost::debug::(anonymous namespace)::process_info", ptr %13, i32 0, i32 3
  %111 = getelementptr inbounds nuw %"struct.boost::debug::(anonymous namespace)::process_info", ptr %13, i32 0, i32 5
  %112 = getelementptr inbounds [501 x i8], ptr %111, i64 0, i64 0
  %113 = load i64, ptr %10, align 8, !tbaa !11
  %114 = invoke noundef nonnull align 8 dereferenceable(16) ptr @_ZN5boost9unit_test13basic_cstringIKcE6assignIlEERS3_PS2_T_(ptr noundef nonnull align 8 dereferenceable(16) %110, ptr noundef %112, i64 noundef %113)
          to label %115 unwind label %102

115:                                              ; preds = %106
  store i32 0, ptr %9, align 4
  br label %116

116:                                              ; preds = %115, %101
  call void @llvm.lifetime.end.p0(i64 8, ptr %12) #3
  call void @llvm.lifetime.end.p0(i64 8, ptr %11) #3
  br label %117

117:                                              ; preds = %116, %39
  call void @llvm.lifetime.end.p0(i64 8, ptr %10) #3
  br label %118

118:                                              ; preds = %117, %25
  call void @_ZN5boost5debug12_GLOBAL__N_19fd_holderD2Ev(ptr noundef nonnull align 4 dereferenceable(4) %6) #3
  call void @llvm.lifetime.end.p0(i64 4, ptr %6) #3
  call void @llvm.lifetime.end.p0(i64 30, ptr %5) #3
  %119 = load i32, ptr %9, align 4
  switch i32 %119, label %128 [
    i32 0, label %120
    i32 1, label %120
  ]

120:                                              ; preds = %118, %118
  ret void

121:                                              ; preds = %102, %40
  call void @llvm.lifetime.end.p0(i64 8, ptr %10) #3
  br label %122

122:                                              ; preds = %121, %26
  call void @_ZN5boost5debug12_GLOBAL__N_19fd_holderD2Ev(ptr noundef nonnull align 4 dereferenceable(4) %6) #3
  call void @llvm.lifetime.end.p0(i64 4, ptr %6) #3
  call void @llvm.lifetime.end.p0(i64 30, ptr %5) #3
  br label %123

123:                                              ; preds = %122
  %124 = load ptr, ptr %7, align 8
  %125 = load i32, ptr %8, align 4
  %126 = insertvalue { ptr, i32 } poison, ptr %124, 0
  %127 = insertvalue { ptr, i32 } %126, i32 %125, 1
  resume { ptr, i32 } %127

128:                                              ; preds = %118
  unreachable
}