; Function Attrs: mustprogress uwtable
define internal fastcc void @_ZN5boost5debug12_GLOBAL__N_112process_infoC2Ei(ptr noundef nonnull align 8 dereferenceable(1042) %0, i32 noundef range(i32 1, 0) %1) unnamed_addr #2 align 2 personality ptr @__gxx_personality_v0 {
  %3 = alloca [30 x i8], align 16
  store i32 0, ptr %0, align 8, !tbaa !22
  %4 = getelementptr inbounds nuw i8, ptr %0, i64 8
  store ptr @_ZN5boost9unit_test13basic_cstringIKcE4nullE, ptr %4, align 8, !tbaa !16
  %5 = getelementptr inbounds nuw i8, ptr %0, i64 16
  store ptr @_ZN5boost9unit_test13basic_cstringIKcE4nullE, ptr %5, align 8, !tbaa !18
  %6 = getelementptr inbounds nuw i8, ptr %0, i64 24
  store ptr @_ZN5boost9unit_test13basic_cstringIKcE4nullE, ptr %6, align 8, !tbaa !16
  %7 = getelementptr inbounds nuw i8, ptr %0, i64 32
  store ptr @_ZN5boost9unit_test13basic_cstringIKcE4nullE, ptr %7, align 8, !tbaa !18
  call void @llvm.lifetime.start.p0(i64 30, ptr nonnull %3) #32
  %8 = call i32 (ptr, i64, ptr, ...) @snprintf(ptr noundef nonnull dereferenceable(1) %3, i64 noundef 30, ptr noundef nonnull @.str.50, i32 noundef %1) #32
  %9 = call i32 (ptr, i32, ...) @open(ptr noundef nonnull %3, i32 noundef 0)
  %10 = icmp eq i32 %9, -1
  br i1 %10, label %_ZN5boost5debug12_GLOBAL__N_19fd_holderD2Ev.exit, label %11

11:                                               ; preds = %2
  %12 = getelementptr inbounds nuw i8, ptr %0, i64 40
  %13 = invoke i64 @read(i32 noundef %9, ptr noundef nonnull %12, i64 noundef 500)
          to label %14 unwind label %16

14:                                               ; preds = %11
  %15 = icmp eq i64 %13, -1
  br i1 %15, label %.thread38, label %18

16:                                               ; preds = %11
  %17 = landingpad { ptr, i32 }
          cleanup
  tail call fastcc void @_ZN5boost5debug12_GLOBAL__N_19fd_holderD2Ev(i32 %9) #32
  call void @llvm.lifetime.end.p0(i64 30, ptr nonnull %3) #32
  resume { ptr, i32 } %17

18:                                               ; preds = %14
  %19 = getelementptr inbounds [501 x i8], ptr %12, i64 0, i64 %13
  store i8 0, ptr %19, align 1, !tbaa !15
  br label %20

20:                                               ; preds = %22, %18
  %.021 = phi ptr [ %12, %18 ], [ %23, %22 ]
  %21 = load i8, ptr %.021, align 1, !tbaa !15
  switch i8 %21, label %22 [
    i8 0, label %.critedge
    i8 40, label %.critedge
  ]

22:                                               ; preds = %20
  %23 = getelementptr inbounds nuw i8, ptr %.021, i64 1
  br label %20, !llvm.loop !25

.critedge:                                        ; preds = %20, %20
  %24 = getelementptr inbounds i8, ptr %.021, i64 1
  br label %25

25:                                               ; preds = %27, %.critedge
  %.0 = phi ptr [ %24, %.critedge ], [ %28, %27 ]
  %26 = load i8, ptr %.0, align 1, !tbaa !15
  switch i8 %26, label %27 [
    i8 0, label %29
    i8 41, label %29
  ]

27:                                               ; preds = %25
  %28 = getelementptr inbounds nuw i8, ptr %.0, i64 1
  br label %25, !llvm.loop !26

29:                                               ; preds = %25, %25
  %30 = getelementptr inbounds i8, ptr %.0, i64 1
  %31 = tail call i32 (ptr, ptr, ...) @__isoc99_sscanf(ptr noundef nonnull %30, ptr noundef nonnull @.str.51, ptr noundef nonnull %0) #32
  store ptr %24, ptr %4, align 8, !tbaa !16
  store ptr %.0, ptr %5, align 8, !tbaa !18
  %32 = call i32 (ptr, i64, ptr, ...) @snprintf(ptr noundef nonnull dereferenceable(1) %3, i64 noundef 30, ptr noundef nonnull @.str.52, i32 noundef %1) #32
  %33 = getelementptr inbounds nuw i8, ptr %0, i64 541
  %34 = call i64 @readlink(ptr noundef nonnull %3, ptr noundef nonnull %33, i64 noundef 500) #32
  %35 = icmp eq i64 %34, -1
  br i1 %35, label %.thread38, label %36

36:                                               ; preds = %29
  %37 = getelementptr inbounds [501 x i8], ptr %33, i64 0, i64 %34
  store i8 0, ptr %37, align 1, !tbaa !15
  store ptr %33, ptr %6, align 8, !tbaa !16
  store ptr %37, ptr %7, align 8, !tbaa !18
  br label %.thread38

.thread38:                                        ; preds = %29, %36, %14
  %38 = invoke i32 @close(i32 noundef %9)
          to label %_ZN5boost5debug12_GLOBAL__N_19fd_holderD2Ev.exit unwind label %39

39:                                               ; preds = %.thread38
  %40 = landingpad { ptr, i32 }
          catch ptr null
  %41 = extractvalue { ptr, i32 } %40, 0
  tail call void @__clang_call_terminate(ptr %41) #30
  unreachable

_ZN5boost5debug12_GLOBAL__N_19fd_holderD2Ev.exit: ; preds = %2, %.thread38
  call void @llvm.lifetime.end.p0(i64 30, ptr nonnull %3) #32
  ret void
}